target datalayout = "e-m:e-p270:32:32-p271:32:32-p272:64:64-i64:64-i128:128-f80:128-n8:16:32:64-S128"
target triple = "x86_64-pc-linux-gnu"

%struct.anon = type { i64, double, double, ptr }

; Function Attrs: nounwind uwtable
define dso_local i32 @resHeat(double noundef %0, ptr noundef %1, ptr noundef %2, ptr noundef %3, ptr noundef %4) #0 {
  %6 = alloca double, align 8
  %7 = alloca ptr, align 8
  %8 = alloca ptr, align 8
  %9 = alloca ptr, align 8
  %10 = alloca ptr, align 8
  %11 = alloca i64, align 8
  %12 = alloca i64, align 8
  %13 = alloca i64, align 8
  %14 = alloca i64, align 8
  %15 = alloca i64, align 8
  %16 = alloca ptr, align 8
  %17 = alloca ptr, align 8
  %18 = alloca ptr, align 8
  %19 = alloca double, align 8
  %20 = alloca double, align 8
  %21 = alloca double, align 8
  %22 = alloca ptr, align 8
  store double %0, ptr %6, align 8, !tbaa !23
  store ptr %1, ptr %7, align 8, !tbaa !8
  store ptr %2, ptr %8, align 8, !tbaa !8
  store ptr %3, ptr %9, align 8, !tbaa !8
  store ptr %4, ptr %10, align 8, !tbaa !4
  call void @llvm.lifetime.start.p0(i64 8, ptr %11) #6
  call void @llvm.lifetime.start.p0(i64 8, ptr %12) #6
  call void @llvm.lifetime.start.p0(i64 8, ptr %13) #6
  call void @llvm.lifetime.start.p0(i64 8, ptr %14) #6
  call void @llvm.lifetime.start.p0(i64 8, ptr %15) #6
  call void @llvm.lifetime.start.p0(i64 8, ptr %16) #6
  call void @llvm.lifetime.start.p0(i64 8, ptr %17) #6
  call void @llvm.lifetime.start.p0(i64 8, ptr %18) #6
  call void @llvm.lifetime.start.p0(i64 8, ptr %19) #6
  call void @llvm.lifetime.start.p0(i64 8, ptr %20) #6
  call void @llvm.lifetime.start.p0(i64 8, ptr %21) #6
  call void @llvm.lifetime.start.p0(i64 8, ptr %22) #6
  %23 = load ptr, ptr %7, align 8, !tbaa !8
  %24 = call ptr @N_VGetArrayPointer(ptr noundef %23)
  store ptr %24, ptr %16, align 8, !tbaa !31
  %25 = load ptr, ptr %8, align 8, !tbaa !8
  %26 = call ptr @N_VGetArrayPointer(ptr noundef %25)
  store ptr %26, ptr %17, align 8, !tbaa !31
  %27 = load ptr, ptr %9, align 8, !tbaa !8
  %28 = call ptr @N_VGetArrayPointer(ptr noundef %27)
  store ptr %28, ptr %18, align 8, !tbaa !31
  %29 = load ptr, ptr %10, align 8, !tbaa !4
  store ptr %29, ptr %22, align 8, !tbaa !4
  %30 = load ptr, ptr %22, align 8, !tbaa !4
  %31 = getelementptr inbounds nuw %struct.anon, ptr %30, i32 0, i32 2
  %32 = load double, ptr %31, align 8, !tbaa !22
  store double %32, ptr %19, align 8, !tbaa !23
  %33 = load ptr, ptr %22, align 8, !tbaa !4
  %34 = getelementptr inbounds nuw %struct.anon, ptr %33, i32 0, i32 0
  %35 = load i64, ptr %34, align 8, !tbaa !20
  store i64 %35, ptr %15, align 8, !tbaa !24
  %36 = load ptr, ptr %7, align 8, !tbaa !8
  %37 = load ptr, ptr %9, align 8, !tbaa !8
  call void @N_VScale(double noundef 1.000000e+00, ptr noundef %36, ptr noundef %37)
  store i64 1, ptr %12, align 8, !tbaa !24
  br label %38

38:                                               ; preds = %105, %5
  %39 = load i64, ptr %12, align 8, !tbaa !24
  %40 = icmp slt i64 %39, 9
  br i1 %40, label %41, label %108

41:                                               ; preds = %38
  %42 = load i64, ptr %15, align 8, !tbaa !24
  %43 = load i64, ptr %12, align 8, !tbaa !24
  %44 = mul nsw i64 %42, %43
  store i64 %44, ptr %13, align 8, !tbaa !24
  store i64 1, ptr %11, align 8, !tbaa !24
  br label %45

45:                                               ; preds = %101, %41
  %46 = load i64, ptr %11, align 8, !tbaa !24
  %47 = load i64, ptr %15, align 8, !tbaa !24
  %48 = sub nsw i64 %47, 1
  %49 = icmp slt i64 %46, %48
  br i1 %49, label %50, label %104

50:                                               ; preds = %45
  %51 = load i64, ptr %13, align 8, !tbaa !24
  %52 = load i64, ptr %11, align 8, !tbaa !24
  %53 = add nsw i64 %51, %52
  store i64 %53, ptr %14, align 8, !tbaa !24
  %54 = load ptr, ptr %16, align 8, !tbaa !31
  %55 = load i64, ptr %14, align 8, !tbaa !24
  %56 = sub nsw i64 %55, 1
  %57 = getelementptr inbounds double, ptr %54, i64 %56
  %58 = load double, ptr %57, align 8, !tbaa !23
  %59 = load ptr, ptr %16, align 8, !tbaa !31
  %60 = load i64, ptr %14, align 8, !tbaa !24
  %61 = add nsw i64 %60, 1
  %62 = getelementptr inbounds double, ptr %59, i64 %61
  %63 = load double, ptr %62, align 8, !tbaa !23
  %64 = fadd double %58, %63
  %65 = load ptr, ptr %16, align 8, !tbaa !31
  %66 = load i64, ptr %14, align 8, !tbaa !24
  %67 = getelementptr inbounds double, ptr %65, i64 %66
  %68 = load double, ptr %67, align 8, !tbaa !23
  %69 = call double @llvm.fmuladd.f64(double -2.000000e+00, double %68, double %64)
  store double %69, ptr %20, align 8, !tbaa !23
  %70 = load ptr, ptr %16, align 8, !tbaa !31
  %71 = load i64, ptr %14, align 8, !tbaa !24
  %72 = load i64, ptr %15, align 8, !tbaa !24
  %73 = sub nsw i64 %71, %72
  %74 = getelementptr inbounds double, ptr %70, i64 %73
  %75 = load double, ptr %74, align 8, !tbaa !23
  %76 = load ptr, ptr %16, align 8, !tbaa !31
  %77 = load i64, ptr %14, align 8, !tbaa !24
  %78 = load i64, ptr %15, align 8, !tbaa !24
  %79 = add nsw i64 %77, %78
  %80 = getelementptr inbounds double, ptr %76, i64 %79
  %81 = load double, ptr %80, align 8, !tbaa !23
  %82 = fadd double %75, %81
  %83 = load ptr, ptr %16, align 8, !tbaa !31
  %84 = load i64, ptr %14, align 8, !tbaa !24
  %85 = getelementptr inbounds double, ptr %83, i64 %84
  %86 = load double, ptr %85, align 8, !tbaa !23
  %87 = call double @llvm.fmuladd.f64(double -2.000000e+00, double %86, double %82)
  store double %87, ptr %21, align 8, !tbaa !23
  %88 = load ptr, ptr %17, align 8, !tbaa !31
  %89 = load i64, ptr %14, align 8, !tbaa !24
  %90 = getelementptr inbounds double, ptr %88, i64 %89
  %91 = load double, ptr %90, align 8, !tbaa !23
  %92 = load double, ptr %19, align 8, !tbaa !23
  %93 = load double, ptr %20, align 8, !tbaa !23
  %94 = load double, ptr %21, align 8, !tbaa !23
  %95 = fadd double %93, %94
  %96 = fneg double %92
  %97 = call double @llvm.fmuladd.f64(double %96, double %95, double %91)
  %98 = load ptr, ptr %18, align 8, !tbaa !31
  %99 = load i64, ptr %14, align 8, !tbaa !24
  %100 = getelementptr inbounds double, ptr %98, i64 %99
  store double %97, ptr %100, align 8, !tbaa !23
  br label %101

101:                                              ; preds = %50
  %102 = load i64, ptr %11, align 8, !tbaa !24
  %103 = add nsw i64 %102, 1
  store i64 %103, ptr %11, align 8, !tbaa !24
  br label %45

104:                                              ; preds = %45
  br label %105

105:                                              ; preds = %104
  %106 = load i64, ptr %12, align 8, !tbaa !24
  %107 = add nsw i64 %106, 1
  store i64 %107, ptr %12, align 8, !tbaa !24
  br label %38

108:                                              ; preds = %38
  call void @llvm.lifetime.end.p0(i64 8, ptr %22) #6
  call void @llvm.lifetime.end.p0(i64 8, ptr %21) #6
  call void @llvm.lifetime.end.p0(i64 8, ptr %20) #6
  call void @llvm.lifetime.end.p0(i64 8, ptr %19) #6
  call void @llvm.lifetime.end.p0(i64 8, ptr %18) #6
  call void @llvm.lifetime.end.p0(i64 8, ptr %17) #6
  call void @llvm.lifetime.end.p0(i64 8, ptr %16) #6
  call void @llvm.lifetime.end.p0(i64 8, ptr %15) #6
  call void @llvm.lifetime.end.p0(i64 8, ptr %14) #6
  call void @llvm.lifetime.end.p0(i64 8, ptr %13) #6
  call void @llvm.lifetime.end.p0(i64 8, ptr %12) #6
  call void @llvm.lifetime.end.p0(i64 8, ptr %11) #6
  ret i32 0
}

; Function Attrs: nounwind uwtable
define internal i32 @SetInitialProfile(ptr noundef %0, ptr noundef %1, ptr noundef %2, ptr noundef %3) #0 {
  %5 = alloca ptr, align 8
  %6 = alloca ptr, align 8
  %7 = alloca ptr, align 8
  %8 = alloca ptr, align 8
  %9 = alloca i64, align 8
  %10 = alloca i64, align 8
  %11 = alloca i64, align 8
  %12 = alloca i64, align 8
  %13 = alloca i64, align 8
  %14 = alloca i64, align 8
  %15 = alloca double, align 8
  %16 = alloca double, align 8
  %17 = alloca ptr, align 8
  %18 = alloca ptr, align 8
  store ptr %0, ptr %5, align 8, !tbaa !4
  store ptr %1, ptr %6, align 8, !tbaa !8
  store ptr %2, ptr %7, align 8, !tbaa !8
  store ptr %3, ptr %8, align 8, !tbaa !8
  call void @llvm.lifetime.start.p0(i64 8, ptr %9) #6
  call void @llvm.lifetime.start.p0(i64 8, ptr %10) #6
  call void @llvm.lifetime.start.p0(i64 8, ptr %11) #6
  call void @llvm.lifetime.start.p0(i64 8, ptr %12) #6
  call void @llvm.lifetime.start.p0(i64 8, ptr %13) #6
  call void @llvm.lifetime.start.p0(i64 8, ptr %14) #6
  call void @llvm.lifetime.start.p0(i64 8, ptr %15) #6
  call void @llvm.lifetime.start.p0(i64 8, ptr %16) #6
  call void @llvm.lifetime.start.p0(i64 8, ptr %17) #6
  call void @llvm.lifetime.start.p0(i64 8, ptr %18) #6
  %19 = load ptr, ptr %5, align 8, !tbaa !4
  %20 = getelementptr inbounds nuw %struct.anon, ptr %19, i32 0, i32 0
  %21 = load i64, ptr %20, align 8, !tbaa !20
  store i64 %21, ptr %9, align 8, !tbaa !24
  %22 = load ptr, ptr %6, align 8, !tbaa !8
  %23 = call ptr @N_VGetArrayPointer(ptr noundef %22)
  store ptr %23, ptr %17, align 8, !tbaa !31
  %24 = load ptr, ptr %7, align 8, !tbaa !8
  %25 = call ptr @N_VGetArrayPointer(ptr noundef %24)
  store ptr %25, ptr %18, align 8, !tbaa !31
  %26 = load i64, ptr %9, align 8, !tbaa !24
  %27 = sub nsw i64 %26, 1
  store i64 %27, ptr %10, align 8, !tbaa !24
  store i64 0, ptr %12, align 8, !tbaa !24
  br label %28

28:                                               ; preds = %73, %4
  %29 = load i64, ptr %12, align 8, !tbaa !24
  %30 = load i64, ptr %9, align 8, !tbaa !24
  %31 = icmp slt i64 %29, %30
  br i1 %31, label %32, label %76

32:                                               ; preds = %28
  %33 = load ptr, ptr %5, align 8, !tbaa !4
  %34 = getelementptr inbounds nuw %struct.anon, ptr %33, i32 0, i32 1
  %35 = load double, ptr %34, align 8, !tbaa !21
  %36 = load i64, ptr %12, align 8, !tbaa !24
  %37 = sitofp i64 %36 to double
  %38 = fmul double %35, %37
  store double %38, ptr %16, align 8, !tbaa !23
  %39 = load i64, ptr %9, align 8, !tbaa !24
  %40 = load i64, ptr %12, align 8, !tbaa !24
  %41 = mul nsw i64 %39, %40
  store i64 %41, ptr %13, align 8, !tbaa !24
  store i64 0, ptr %11, align 8, !tbaa !24
  br label %42

42:                                               ; preds = %69, %32
  %43 = load i64, ptr %11, align 8, !tbaa !24
  %44 = load i64, ptr %9, align 8, !tbaa !24
  %45 = icmp slt i64 %43, %44
  br i1 %45, label %46, label %72

46:                                               ; preds = %42
  %47 = load ptr, ptr %5, align 8, !tbaa !4
  %48 = getelementptr inbounds nuw %struct.anon, ptr %47, i32 0, i32 1
  %49 = load double, ptr %48, align 8, !tbaa !21
  %50 = load i64, ptr %11, align 8, !tbaa !24
  %51 = sitofp i64 %50 to double
  %52 = fmul double %49, %51
  store double %52, ptr %15, align 8, !tbaa !23
  %53 = load i64, ptr %13, align 8, !tbaa !24
  %54 = load i64, ptr %11, align 8, !tbaa !24
  %55 = add nsw i64 %53, %54
  store i64 %55, ptr %14, align 8, !tbaa !24
  %56 = load double, ptr %15, align 8, !tbaa !23
  %57 = fmul double 1.600000e+01, %56
  %58 = load double, ptr %15, align 8, !tbaa !23
  %59 = fsub double 1.000000e+00, %58
  %60 = fmul double %57, %59
  %61 = load double, ptr %16, align 8, !tbaa !23
  %62 = fmul double %60, %61
  %63 = load double, ptr %16, align 8, !tbaa !23
  %64 = fsub double 1.000000e+00, %63
  %65 = fmul double %62, %64
  %66 = load ptr, ptr %17, align 8, !tbaa !31
  %67 = load i64, ptr %14, align 8, !tbaa !24
  %68 = getelementptr inbounds double, ptr %66, i64 %67
  store double %65, ptr %68, align 8, !tbaa !23
  br label %69

69:                                               ; preds = %46
  %70 = load i64, ptr %11, align 8, !tbaa !24
  %71 = add nsw i64 %70, 1
  store i64 %71, ptr %11, align 8, !tbaa !24
  br label %42

72:                                               ; preds = %42
  br label %73

73:                                               ; preds = %72
  %74 = load i64, ptr %12, align 8, !tbaa !24
  %75 = add nsw i64 %74, 1
  store i64 %75, ptr %12, align 8, !tbaa !24
  br label %28

76:                                               ; preds = %28
  %77 = load ptr, ptr %7, align 8, !tbaa !8
  call void @N_VConst(double noundef 0.000000e+00, ptr noundef %77)
  %78 = load ptr, ptr %6, align 8, !tbaa !8
  %79 = load ptr, ptr %7, align 8, !tbaa !8
  %80 = load ptr, ptr %8, align 8, !tbaa !8
  %81 = load ptr, ptr %5, align 8, !tbaa !4
  %82 = call i32 @resHeat(double noundef 0.000000e+00, ptr noundef %78, ptr noundef %79, ptr noundef %80, ptr noundef %81)
  %83 = load ptr, ptr %8, align 8, !tbaa !8
  %84 = load ptr, ptr %7, align 8, !tbaa !8
  call void @N_VScale(double noundef -1.000000e+00, ptr noundef %83, ptr noundef %84)
  store i64 0, ptr %12, align 8, !tbaa !24
  br label %85

85:                                               ; preds = %123, %76
  %86 = load i64, ptr %12, align 8, !tbaa !24
  %87 = load i64, ptr %9, align 8, !tbaa !24
  %88 = icmp slt i64 %86, %87
  br i1 %88, label %89, label %126

89:                                               ; preds = %85
  %90 = load i64, ptr %9, align 8, !tbaa !24
  %91 = load i64, ptr %12, align 8, !tbaa !24
  %92 = mul nsw i64 %90, %91
  store i64 %92, ptr %13, align 8, !tbaa !24
  store i64 0, ptr %11, align 8, !tbaa !24
  br label %93

93:                                               ; preds = %119, %89
  %94 = load i64, ptr %11, align 8, !tbaa !24
  %95 = load i64, ptr %9, align 8, !tbaa !24
  %96 = icmp slt i64 %94, %95
  br i1 %96, label %97, label %122

97:                                               ; preds = %93
  %98 = load i64, ptr %13, align 8, !tbaa !24
  %99 = load i64, ptr %11, align 8, !tbaa !24
  %100 = add nsw i64 %98, %99
  store i64 %100, ptr %14, align 8, !tbaa !24
  %101 = load i64, ptr %12, align 8, !tbaa !24
  %102 = icmp eq i64 %101, 0
  br i1 %102, label %114, label %103

103:                                              ; preds = %97
  %104 = load i64, ptr %12, align 8, !tbaa !24
  %105 = load i64, ptr %10, align 8, !tbaa !24
  %106 = icmp eq i64 %104, %105
  br i1 %106, label %114, label %107

107:                                              ; preds = %103
  %108 = load i64, ptr %11, align 8, !tbaa !24
  %109 = icmp eq i64 %108, 0
  br i1 %109, label %114, label %110

110:                                              ; preds = %107
  %111 = load i64, ptr %11, align 8, !tbaa !24
  %112 = load i64, ptr %10, align 8, !tbaa !24
  %113 = icmp eq i64 %111, %112
  br i1 %113, label %114, label %118

114:                                              ; preds = %110, %107, %103, %97
  %115 = load ptr, ptr %18, align 8, !tbaa !31
  %116 = load i64, ptr %14, align 8, !tbaa !24
  %117 = getelementptr inbounds double, ptr %115, i64 %116
  store double 0.000000e+00, ptr %117, align 8, !tbaa !23
  br label %118

118:                                              ; preds = %114, %110
  br label %119

119:                                              ; preds = %118
  %120 = load i64, ptr %11, align 8, !tbaa !24
  %121 = add nsw i64 %120, 1
  store i64 %121, ptr %11, align 8, !tbaa !24
  br label %93

122:                                              ; preds = %93
  br label %123

123:                                              ; preds = %122
  %124 = load i64, ptr %12, align 8, !tbaa !24
  %125 = add nsw i64 %124, 1
  store i64 %125, ptr %12, align 8, !tbaa !24
  br label %85

126:                                              ; preds = %85
  call void @llvm.lifetime.end.p0(i64 8, ptr %18) #6
  call void @llvm.lifetime.end.p0(i64 8, ptr %17) #6
  call void @llvm.lifetime.end.p0(i64 8, ptr %16) #6
  call void @llvm.lifetime.end.p0(i64 8, ptr %15) #6
  call void @llvm.lifetime.end.p0(i64 8, ptr %14) #6
  call void @llvm.lifetime.end.p0(i64 8, ptr %13) #6
  call void @llvm.lifetime.end.p0(i64 8, ptr %12) #6
  call void @llvm.lifetime.end.p0(i64 8, ptr %11) #6
  call void @llvm.lifetime.end.p0(i64 8, ptr %10) #6
  call void @llvm.lifetime.end.p0(i64 8, ptr %9) #6
  ret i32 0
}